; Function Attrs: mustprogress nounwind uwtable
define noundef range(i32 -1, 1) i32 @_ZNK3zmq13socket_base_t14check_protocolERKNSt7__cxx1112basic_stringIcSt11char_traitsIcESaIcEEE(ptr noundef nonnull readonly align 8 captures(none) dereferenceable(1825) %0, ptr noundef nonnull align 8 dereferenceable(32) %1) local_unnamed_addr #5 align 2 {
  %3 = tail call noundef i32 @_ZNKSt7__cxx1112basic_stringIcSt11char_traitsIcESaIcEE7compareEPKc(ptr noundef nonnull align 8 dereferenceable(32) %1, ptr noundef nonnull @_ZN3zmq13protocol_nameL6inprocE) #36
  %.not = icmp eq i32 %3, 0
  br i1 %.not, label %16, label %4

4:                                                ; preds = %2
  %5 = tail call noundef i32 @_ZNKSt7__cxx1112basic_stringIcSt11char_traitsIcESaIcEE7compareEPKc(ptr noundef nonnull align 8 dereferenceable(32) %1, ptr noundef nonnull @_ZN3zmq13protocol_nameL3ipcE) #36
  %.not12 = icmp eq i32 %5, 0
  br i1 %.not12, label %16, label %6

6:                                                ; preds = %4
  %7 = tail call noundef i32 @_ZNKSt7__cxx1112basic_stringIcSt11char_traitsIcESaIcEE7compareEPKc(ptr noundef nonnull align 8 dereferenceable(32) %1, ptr noundef nonnull @_ZN3zmq13protocol_nameL3tcpE) #36
  %.not13 = icmp eq i32 %7, 0
  br i1 %.not13, label %16, label %8

8:                                                ; preds = %6
  %9 = tail call noundef i32 @_ZNKSt7__cxx1112basic_stringIcSt11char_traitsIcESaIcEE7compareEPKc(ptr noundef nonnull align 8 dereferenceable(32) %1, ptr noundef nonnull @_ZN3zmq13protocol_nameL2wsE) #36
  %.not14 = icmp eq i32 %9, 0
  br i1 %.not14, label %16, label %10

10:                                               ; preds = %8
  %11 = tail call noundef i32 @_ZNKSt7__cxx1112basic_stringIcSt11char_traitsIcESaIcEE7compareEPKc(ptr noundef nonnull align 8 dereferenceable(32) %1, ptr noundef nonnull @_ZN3zmq13protocol_nameL3wssE) #36
  %.not15 = icmp eq i32 %11, 0
  br i1 %.not15, label %16, label %12

12:                                               ; preds = %10
  %13 = tail call noundef i32 @_ZNKSt7__cxx1112basic_stringIcSt11char_traitsIcESaIcEE7compareEPKc(ptr noundef nonnull align 8 dereferenceable(32) %1, ptr noundef nonnull @_ZN3zmq13protocol_nameL4tipcE) #36
  %.not16 = icmp eq i32 %13, 0
  br i1 %.not16, label %16, label %14

14:                                               ; preds = %12
  %15 = tail call noundef i32 @_ZNKSt7__cxx1112basic_stringIcSt11char_traitsIcESaIcEE7compareEPKc(ptr noundef nonnull align 8 dereferenceable(32) %1, ptr noundef nonnull @_ZN3zmq13protocol_nameL3udpE) #36
  %.not17 = icmp eq i32 %15, 0
  br i1 %.not17, label %16, label %.sink.split

16:                                               ; preds = %14, %12, %10, %8, %6, %4, %2
  %17 = tail call noundef i32 @_ZNKSt7__cxx1112basic_stringIcSt11char_traitsIcESaIcEE7compareEPKc(ptr noundef nonnull align 8 dereferenceable(32) %1, ptr noundef nonnull @_ZN3zmq13protocol_nameL3udpE) #36
  %18 = icmp eq i32 %17, 0
  br i1 %18, label %19, label %23

19:                                               ; preds = %16
  %20 = getelementptr inbounds nuw i8, ptr %0, i64 332
  %21 = load i8, ptr %20, align 4, !tbaa !132
  switch i8 %21, label %.sink.split [
    i8 15, label %23
    i8 14, label %23
    i8 18, label %23
  ]

.sink.split:                                      ; preds = %19, %14
  %.sink = phi i32 [ 93, %14 ], [ 156384764, %19 ]
  %22 = tail call ptr @__errno_location() #39
  store i32 %.sink, ptr %22, align 4, !tbaa !17
  br label %23

23:                                               ; preds = %.sink.split, %16, %19, %19, %19
  %.0 = phi i32 [ 0, %19 ], [ 0, %19 ], [ 0, %19 ], [ 0, %16 ], [ -1, %.sink.split ]
  ret i32 %.0
}